target datalayout = "e-m:e-p270:32:32-p271:32:32-p272:64:64-i64:64-i128:128-f80:128-n8:16:32:64-S128"
target triple = "x86_64-pc-linux-gnu"

%struct.avifRWData = type { ptr, i64 }
%struct.avifMeta = type { %struct.avifDecoderItemArray, %struct.avifPropertyArray, %struct.avifRWData, i32, i32 }
%struct.avifDecoderItemArray = type { ptr, i32, i32, i32 }
%struct.avifPropertyArray = type { ptr, i32, i32, i32 }
%struct.avifDecoderItem = type { i32, ptr, [4 x i8], i64, i32, i32, i32, %struct.avifContentType, %struct.avifPropertyArray, %struct.avifExtentArray, %struct.avifRWData, i32, i32, i32, i32, i32, i32, i32, i32, i32, i32, i32 }
%struct.avifContentType = type { [64 x i8] }
%struct.avifExtentArray = type { ptr, i32, i32, i32 }

; Function Attrs: nounwind uwtable
define internal i32 @avifMetaFindOrCreateItem(ptr noundef %0, i32 noundef %1, ptr noundef %2) #0 {
  %4 = alloca i32, align 4
  %5 = alloca ptr, align 8
  %6 = alloca i32, align 4
  %7 = alloca ptr, align 8
  %8 = alloca i32, align 4
  store ptr %0, ptr %5, align 8
  store i32 %1, ptr %6, align 4
  store ptr %2, ptr %7, align 8
  %9 = load ptr, ptr %7, align 8
  store ptr null, ptr %9, align 8
  store i32 0, ptr %8, align 4
  br label %10

10:                                               ; preds = %39, %3
  %11 = load i32, ptr %8, align 4
  %12 = load ptr, ptr %5, align 8
  %13 = getelementptr inbounds nuw %struct.avifMeta, ptr %12, i32 0, i32 0
  %14 = getelementptr inbounds nuw %struct.avifDecoderItemArray, ptr %13, i32 0, i32 2
  %15 = load i32, ptr %14, align 4
  %16 = icmp ult i32 %11, %15
  br i1 %16, label %17, label %42

17:                                               ; preds = %10
  %18 = load ptr, ptr %5, align 8
  %19 = getelementptr inbounds nuw %struct.avifMeta, ptr %18, i32 0, i32 0
  %20 = getelementptr inbounds nuw %struct.avifDecoderItemArray, ptr %19, i32 0, i32 0
  %21 = load ptr, ptr %20, align 8
  %22 = load i32, ptr %8, align 4
  %23 = zext i32 %22 to i64
  %24 = getelementptr inbounds %struct.avifDecoderItem, ptr %21, i64 %23
  %25 = getelementptr inbounds nuw %struct.avifDecoderItem, ptr %24, i32 0, i32 0
  %26 = load i32, ptr %25, align 8
  %27 = load i32, ptr %6, align 4
  %28 = icmp eq i32 %26, %27
  br i1 %28, label %29, label %38

29:                                               ; preds = %17
  %30 = load ptr, ptr %5, align 8
  %31 = getelementptr inbounds nuw %struct.avifMeta, ptr %30, i32 0, i32 0
  %32 = getelementptr inbounds nuw %struct.avifDecoderItemArray, ptr %31, i32 0, i32 0
  %33 = load ptr, ptr %32, align 8
  %34 = load i32, ptr %8, align 4
  %35 = zext i32 %34 to i64
  %36 = getelementptr inbounds %struct.avifDecoderItem, ptr %33, i64 %35
  %37 = load ptr, ptr %7, align 8
  store ptr %36, ptr %37, align 8
  store i32 0, ptr %4, align 4
  br label %83

38:                                               ; preds = %17
  br label %39

39:                                               ; preds = %38
  %40 = load i32, ptr %8, align 4
  %41 = add i32 %40, 1
  store i32 %41, ptr %8, align 4
  br label %10, !llvm.loop !19

42:                                               ; preds = %10
  %43 = load ptr, ptr %5, align 8
  %44 = getelementptr inbounds nuw %struct.avifMeta, ptr %43, i32 0, i32 0
  %45 = call ptr @avifArrayPush(ptr noundef %44)
  %46 = load ptr, ptr %7, align 8
  store ptr %45, ptr %46, align 8
  br label %47

47:                                               ; preds = %42
  %48 = load ptr, ptr %7, align 8
  %49 = load ptr, ptr %48, align 8
  %50 = icmp ne ptr %49, null
  br i1 %50, label %52, label %51

51:                                               ; preds = %47
  store i32 26, ptr %4, align 4
  br label %83

52:                                               ; preds = %47
  br label %53

53:                                               ; preds = %52
  %54 = load ptr, ptr %7, align 8
  %55 = load ptr, ptr %54, align 8
  %56 = getelementptr inbounds nuw %struct.avifDecoderItem, ptr %55, i32 0, i32 8
  %57 = call i32 @avifArrayCreate(ptr noundef %56, i32 noundef 72, i32 noundef 16)
  %58 = icmp ne i32 %57, 0
  br i1 %58, label %62, label %59

59:                                               ; preds = %53
  %60 = load ptr, ptr %5, align 8
  %61 = getelementptr inbounds nuw %struct.avifMeta, ptr %60, i32 0, i32 0
  call void @avifArrayPop(ptr noundef %61)
  store i32 26, ptr %4, align 4
  br label %83

62:                                               ; preds = %53
  %63 = load ptr, ptr %7, align 8
  %64 = load ptr, ptr %63, align 8
  %65 = getelementptr inbounds nuw %struct.avifDecoderItem, ptr %64, i32 0, i32 9
  %66 = call i32 @avifArrayCreate(ptr noundef %65, i32 noundef 16, i32 noundef 1)
  %67 = icmp ne i32 %66, 0
  br i1 %67, label %74, label %68

68:                                               ; preds = %62
  %69 = load ptr, ptr %7, align 8
  %70 = load ptr, ptr %69, align 8
  %71 = getelementptr inbounds nuw %struct.avifDecoderItem, ptr %70, i32 0, i32 8
  call void @avifArrayDestroy(ptr noundef %71)
  %72 = load ptr, ptr %5, align 8
  %73 = getelementptr inbounds nuw %struct.avifMeta, ptr %72, i32 0, i32 0
  call void @avifArrayPop(ptr noundef %73)
  store i32 26, ptr %4, align 4
  br label %83

74:                                               ; preds = %62
  %75 = load i32, ptr %6, align 4
  %76 = load ptr, ptr %7, align 8
  %77 = load ptr, ptr %76, align 8
  %78 = getelementptr inbounds nuw %struct.avifDecoderItem, ptr %77, i32 0, i32 0
  store i32 %75, ptr %78, align 8
  %79 = load ptr, ptr %5, align 8
  %80 = load ptr, ptr %7, align 8
  %81 = load ptr, ptr %80, align 8
  %82 = getelementptr inbounds nuw %struct.avifDecoderItem, ptr %81, i32 0, i32 1
  store ptr %79, ptr %82, align 8
  store i32 0, ptr %4, align 4
  br label %83

83:                                               ; preds = %74, %68, %59, %51, %29
  %84 = load i32, ptr %4, align 4
  ret i32 %84
}