; Function Attrs: nounwind uwtable
define internal fastcc range(i32 0, 27) i32 @avifMetaFindOrCreateItem(ptr noundef %0, i32 noundef %1, ptr noundef nonnull captures(none) initializes((0, 8)) %2) unnamed_addr #0 {
  store ptr null, ptr %2, align 8
  %4 = getelementptr inbounds nuw i8, ptr %0, i64 12
  %5 = load i32, ptr %4, align 4
  %.not27 = icmp eq i32 %5, 0
  br i1 %.not27, label %._crit_edge, label %.lr.ph

.lr.ph:                                           ; preds = %3
  %6 = load ptr, ptr %0, align 8
  %wide.trip.count = zext i32 %5 to i64
  br label %8

7:                                                ; preds = %8
  %indvars.iv.next = add nuw nsw i64 %indvars.iv, 1
  %exitcond.not = icmp eq i64 %indvars.iv.next, %wide.trip.count
  br i1 %exitcond.not, label %._crit_edge, label %8, !llvm.loop !32

8:                                                ; preds = %.lr.ph, %7
  %indvars.iv = phi i64 [ 0, %.lr.ph ], [ %indvars.iv.next, %7 ]
  %9 = getelementptr inbounds nuw %struct.avifDecoderItem, ptr %6, i64 %indvars.iv
  %10 = load i32, ptr %9, align 8
  %11 = icmp eq i32 %10, %1
  br i1 %11, label %12, label %7

12:                                               ; preds = %8
  store ptr %9, ptr %2, align 8
  br label %28

._crit_edge:                                      ; preds = %7, %3
  %13 = tail call ptr @avifArrayPush(ptr noundef nonnull %0) #13
  store ptr %13, ptr %2, align 8
  %.not = icmp eq ptr %13, null
  br i1 %.not, label %28, label %14

14:                                               ; preds = %._crit_edge
  %15 = getelementptr inbounds nuw i8, ptr %13, i64 112
  %16 = tail call i32 @avifArrayCreate(ptr noundef nonnull %15, i32 noundef 72, i32 noundef 16) #13
  %.not24 = icmp eq i32 %16, 0
  br i1 %.not24, label %17, label %18

17:                                               ; preds = %14
  tail call void @avifArrayPop(ptr noundef nonnull %0) #13
  br label %28

18:                                               ; preds = %14
  %19 = load ptr, ptr %2, align 8
  %20 = getelementptr inbounds nuw i8, ptr %19, i64 136
  %21 = tail call i32 @avifArrayCreate(ptr noundef nonnull %20, i32 noundef 16, i32 noundef 1) #13
  %.not25 = icmp eq i32 %21, 0
  %22 = load ptr, ptr %2, align 8
  br i1 %.not25, label %23, label %25

23:                                               ; preds = %18
  %24 = getelementptr inbounds nuw i8, ptr %22, i64 112
  tail call void @avifArrayDestroy(ptr noundef nonnull %24) #13
  tail call void @avifArrayPop(ptr noundef nonnull %0) #13
  br label %28

25:                                               ; preds = %18
  store i32 %1, ptr %22, align 8
  %26 = load ptr, ptr %2, align 8
  %27 = getelementptr inbounds nuw i8, ptr %26, i64 8
  store ptr %0, ptr %27, align 8
  br label %28

28:                                               ; preds = %._crit_edge, %25, %23, %17, %12
  %.022 = phi i32 [ 0, %12 ], [ 0, %25 ], [ 26, %23 ], [ 26, %17 ], [ 26, %._crit_edge ]
  ret i32 %.022
}